(i__main__
params_for_pickle
p1
(dp2
S'filterByColor'
p3
I01
sS'thresholdStep'
p4
F10
sS'filterByInertia'
p5
I01
sS'minDistBetweenBlobs'
p6
F10
sS'minArea'
p7
F298
sS'filterByCircularity'
p8
I01
sS'minConvexity'
p9
F0.79600000381469727
sS'filterByConvexity'
p10
I01
sS'filterByArea'
p11
I01
sS'blobColor'
p12
I0
sS'minCircularity'
p13
F0.68900001049041748
sS'minRepeatability'
p14
L2L
sS'maxInertiaRatio'
p15
F0.58300000429153442
sS'maxConvexity'
p16
F1
sS'maxCircularity'
p17
F0.82400000095367432
sS'maxThreshold'
p18
F255
sS'minInertiaRatio'
p19
F0.24500000476837158
sS'maxArea'
p20
F1000
sS'minThreshold'
p21
F10
sb.